; Function Attrs: nounwind sspstrong uwtable
define internal range(i64 1, 4294967296) i64 @proc_setsid(i64 %0) #1 {
  %2 = tail call i32 @setsid() #27
  %3 = icmp slt i32 %2, 0
  br i1 %3, label %4, label %7

4:                                                ; preds = %1
  %5 = tail call ptr @rb_errno_ptr() #27
  %6 = load i32, ptr %5, align 4, !tbaa !60
  tail call void @rb_syserr_fail(i32 noundef %6, ptr noundef null) #29
  unreachable

7:                                                ; preds = %1
  %8 = shl nuw i32 %2, 1
  %9 = or disjoint i32 %8, 1
  %10 = zext i32 %9 to i64
  ret i64 %10
}